target datalayout = "e-m:e-p270:32:32-p271:32:32-p272:64:64-i64:64-i128:128-f80:128-n8:16:32:64-S128"
target triple = "x86_64-pc-linux-gnu"

%struct.H5FD_splitter_fapl_t = type { i64, i64, [4097 x i8], [4097 x i8], i8 }
%struct.H5FD_splitter_t = type { %struct.H5FD_t, i32, %struct.H5FD_splitter_fapl_t, ptr, ptr, ptr }
%struct.H5FD_t = type { i64, ptr, i64, i32, i64, i64, i64, i64, i64, i8 }

@H5FD_init_g = external global i8, align 1
@H5_libterm_g = external global i8, align 1
@.str = private unnamed_addr constant [106 x i8] c"generated/home/dtcxzyw/WorkSpace/Projects/compilers/llvm-opt-benchmark/bench/hdf5/hdf5/src/H5FDsplitter.c\00", align 1
@H5E_VFL_g = external global i64, align 8
@H5E_CANTGET_g = external global i64, align 8
@__func__.H5FD__splitter_get_handle = private unnamed_addr constant [26 x i8] c"H5FD__splitter_get_handle\00", align 1
@.str.55 = private unnamed_addr constant [33 x i8] c"unable to get handle of R/W file\00", align 1

; Function Attrs: nounwind uwtable
define internal i32 @H5FD__splitter_get_handle(ptr noundef %0, i64 noundef %1, ptr noundef %2) #0 {
  %4 = alloca ptr, align 8
  %5 = alloca i64, align 8
  %6 = alloca ptr, align 8
  %7 = alloca ptr, align 8
  %8 = alloca i32, align 4
  %9 = alloca i8, align 1
  store ptr %0, ptr %4, align 8, !tbaa !38
  store i64 %1, ptr %5, align 8, !tbaa !11
  store ptr %2, ptr %6, align 8, !tbaa !47
  call void @llvm.lifetime.start.p0(i64 8, ptr %7) #10
  %10 = load ptr, ptr %4, align 8, !tbaa !38
  store ptr %10, ptr %7, align 8, !tbaa !40
  call void @llvm.lifetime.start.p0(i64 4, ptr %8) #10
  store i32 0, ptr %8, align 4, !tbaa !3
  call void @llvm.lifetime.start.p0(i64 1, ptr %9) #10
  store i8 0, ptr %9, align 1, !tbaa !7
  %11 = load i8, ptr @H5FD_init_g, align 1, !tbaa !7, !range !9, !noundef !10
  %12 = trunc i8 %11 to i1
  br i1 %12, label %17, label %13

13:                                               ; preds = %3
  %14 = load i8, ptr @H5_libterm_g, align 1, !tbaa !7, !range !9, !noundef !10
  %15 = trunc i8 %14 to i1
  %16 = xor i1 %15, true
  br label %17

17:                                               ; preds = %13, %3
  %18 = phi i1 [ true, %3 ], [ %16, %13 ]
  %19 = xor i1 %18, true
  %20 = xor i1 %19, true
  %21 = zext i1 %20 to i32
  %22 = sext i32 %21 to i64
  %23 = call i64 @llvm.expect.i64(i64 %22, i64 1)
  %24 = icmp ne i64 %23, 0
  br i1 %24, label %25, label %57

25:                                               ; preds = %17
  %26 = load ptr, ptr %7, align 8, !tbaa !40
  %27 = getelementptr inbounds nuw %struct.H5FD_splitter_t, ptr %26, i32 0, i32 3
  %28 = load ptr, ptr %27, align 8, !tbaa !42
  %29 = load ptr, ptr %7, align 8, !tbaa !40
  %30 = getelementptr inbounds nuw %struct.H5FD_splitter_t, ptr %29, i32 0, i32 2
  %31 = getelementptr inbounds nuw %struct.H5FD_splitter_fapl_t, ptr %30, i32 0, i32 0
  %32 = load i64, ptr %31, align 8, !tbaa !48
  %33 = load ptr, ptr %6, align 8, !tbaa !47
  %34 = call i32 @H5FD_get_vfd_handle(ptr noundef %28, i64 noundef %32, ptr noundef %33)
  %35 = icmp slt i32 %34, 0
  br i1 %35, label %36, label %55

36:                                               ; preds = %25
  br label %37

37:                                               ; preds = %36
  br label %38

38:                                               ; preds = %37
  br label %39

39:                                               ; preds = %38
  %40 = load i64, ptr @H5E_VFL_g, align 8, !tbaa !11
  %41 = load i64, ptr @H5E_CANTGET_g, align 8, !tbaa !11
  %42 = call i32 (ptr, ptr, i32, i64, i64, ptr, ...) @H5E_printf_stack(ptr noundef @.str, ptr noundef @__func__.H5FD__splitter_get_handle, i32 noundef 1193, i64 noundef %40, i64 noundef %41, ptr noundef @.str.55)
  br label %43

43:                                               ; preds = %39
  br label %44

44:                                               ; preds = %43
  store i8 1, ptr %9, align 1, !tbaa !7
  %45 = load i8, ptr %9, align 1, !tbaa !7, !range !9, !noundef !10
  %46 = trunc i8 %45 to i1
  %47 = zext i1 %46 to i8
  store i8 %47, ptr %9, align 1, !tbaa !7
  br label %48

48:                                               ; preds = %44
  br label %49

49:                                               ; preds = %48
  br label %50

50:                                               ; preds = %49
  store i32 -1, ptr %8, align 4, !tbaa !3
  br label %56

51:                                               ; No predecessors!
  br label %52

52:                                               ; preds = %51
  br label %53

53:                                               ; preds = %52
  br label %54

54:                                               ; preds = %53
  br label %55

55:                                               ; preds = %54, %25
  br label %56

56:                                               ; preds = %55, %50
  br label %57

57:                                               ; preds = %56, %17
  %58 = load i32, ptr %8, align 4, !tbaa !3
  call void @llvm.lifetime.end.p0(i64 1, ptr %9) #10
  call void @llvm.lifetime.end.p0(i64 4, ptr %8) #10
  call void @llvm.lifetime.end.p0(i64 8, ptr %7) #10
  ret i32 %58
}